(dp0
S'_AgentService:AgentInfo'
p1
(dp2
S'com.plexapp.agents.fanarttv'
p3
(lp4
(dp5
S'media_types'
p6
(lp7
S'Movie'
p8
asS'primary_provider'
p9
I00
sS'fallback_agent'
p10
NsS'contributes_to'
p11
(lp12
S'com.plexapp.agents.imdb'
p13
aS'com.plexapp.agents.themoviedb'
p14
asS'has_attribution'
p15
I01
sS'languages'
p16
(lp17
S'xn'
p18
asS'persist_stored_files'
p19
I01
sS'version'
p20
I0
sS'accepts_from'
p21
NsS'prefs'
p22
I01
sS'name'
p23
S'Fanart.tv'
p24
sa(dp25
S'media_types'
p26
(lp27
S'TV_Show'
p28
asS'primary_provider'
p29
I00
sS'fallback_agent'
p30
NsS'contributes_to'
p31
(lp32
S'com.plexapp.agents.thetvdb'
p33
aS'com.plexapp.agents.themoviedb'
p34
asg15
I01
sS'languages'
p35
(lp36
S'xn'
p37
asS'persist_stored_files'
p38
I01
sS'version'
p39
I0
sS'accepts_from'
p40
NsS'prefs'
p41
I01
sS'name'
p42
S'Fanart.tv'
p43
sa(dp44
S'media_types'
p45
(lp46
S'Artist'
p47
asS'primary_provider'
p48
I00
sS'fallback_agent'
p49
NsS'contributes_to'
p50
(lp51
S'com.plexapp.agents.lastfm'
p52
asg15
I01
sS'languages'
p53
(lp54
S'xn'
p55
asS'persist_stored_files'
p56
I01
sS'version'
p57
I0
sS'accepts_from'
p58
NsS'prefs'
p59
I01
sS'name'
p60
S'Fanart.tv'
p61
sa(dp62
S'media_types'
p63
(lp64
S'Album'
p65
asS'primary_provider'
p66
I00
sS'fallback_agent'
p67
NsS'contributes_to'
p68
(lp69
S'com.plexapp.agents.lastfm'
p70
asg15
I01
sS'languages'
p71
(lp72
S'xn'
p73
asS'persist_stored_files'
p74
I01
sS'version'
p75
I0
sS'accepts_from'
p76
NsS'prefs'
p77
I01
sS'name'
p78
S'Fanart.tv'
p79
sasS'com.plexapp.agents.none'
p80
(lp81
(dp82
S'media_types'
p83
(lp84
S'Movie'
p85
asS'primary_provider'
p86
I01
sS'fallback_agent'
p87
NsS'contributes_to'
p88
Nsg15
I00
sS'languages'
p89
(lp90
S'xn'
p91
asS'persist_stored_files'
p92
I01
sS'version'
p93
I0
sS'accepts_from'
p94
NsS'prefs'
p95
I00
sS'name'
p96
S'Personal Media'
p97
sa(dp98
S'media_types'
p99
(lp100
S'TV_Show'
p101
asS'primary_provider'
p102
I01
sS'fallback_agent'
p103
NsS'contributes_to'
p104
Nsg15
I00
sS'languages'
p105
(lp106
S'xn'
p107
asS'persist_stored_files'
p108
I01
sS'version'
p109
I0
sS'accepts_from'
p110
NsS'prefs'
p111
I00
sS'name'
p112
S'Personal Media Shows'
p113
sa(dp114
S'media_types'
p115
(lp116
S'Artist'
p117
asS'primary_provider'
p118
I01
sS'fallback_agent'
p119
NsS'contributes_to'
p120
Nsg15
I00
sS'languages'
p121
(lp122
S'xn'
p123
asS'persist_stored_files'
p124
I01
sS'version'
p125
I0
sS'accepts_from'
p126
NsS'prefs'
p127
I00
sS'name'
p128
S'Personal Media Artists'
p129
sa(dp130
S'media_types'
p131
(lp132
S'Album'
p133
asS'primary_provider'
p134
I01
sS'fallback_agent'
p135
NsS'contributes_to'
p136
Nsg15
I00
sS'languages'
p137
(lp138
S'xn'
p139
asS'persist_stored_files'
p140
I01
sS'version'
p141
I0
sS'accepts_from'
p142
NsS'prefs'
p143
I00
sS'name'
p144
S'Personal Media Albums'
p145
sa(dp146
S'media_types'
p147
(lp148
S'Photo'
p149
asS'primary_provider'
p150
I01
sS'fallback_agent'
p151
NsS'contributes_to'
p152
Nsg15
I00
sS'languages'
p153
(lp154
S'en'
p155
aS'ar'
p156
aS'bg'
p157
aS'ca'
p158
aS'cs'
p159
aS'cy'
p160
aS'da'
p161
aS'de'
p162
aS'el'
p163
aS'es'
p164
aS'et'
p165
aS'fa'
p166
aS'fi'
p167
aS'fr'
p168
aS'he'
p169
aS'hi'
p170
aS'hr'
p171
aS'ht'
p172
aS'hu'
p173
aS'id'
p174
aS'it'
p175
aS'ja'
p176
aS'ko'
p177
aS'lt'
p178
aS'lv'
p179
aS'ms'
p180
aS'mt'
p181
aS'nl'
p182
aS'no'
p183
aS'pl'
p184
aS'pt'
p185
aS'ro'
p186
aS'ru'
p187
aS'sk'
p188
aS'sv'
p189
aS'sl'
p190
aS'sr'
p191
aS'th'
p192
aS'tr'
p193
aS'uk'
p194
aS'ur'
p195
aS'vi'
p196
aS'zh'
p197
aS'xn'
p198
asS'persist_stored_files'
p199
I01
sS'version'
p200
I0
sS'accepts_from'
p201
NsS'prefs'
p202
I00
sS'name'
p203
S'Photos'
p204
sasS'tv.plex.agents.music'
p205
(lp206
(dp207
S'media_types'
p208
(lp209
S'Artist'
p210
asS'primary_provider'
p211
I01
sS'fallback_agent'
p212
NsS'contributes_to'
p213
Nsg15
I01
sS'languages'
p214
(lp215
S'en'
p216
aS'ar'
p217
aS'bg'
p218
aS'zh'
p219
aS'hr'
p220
aS'cs'
p221
aS'da'
p222
aS'nl'
p223
aS'fi'
p224
aS'fr'
p225
aS'de'
p226
aS'el'
p227
aS'hu'
p228
aS'id'
p229
aS'it'
p230
aS'ja'
p231
aS'ko'
p232
aS'nn'
p233
aS'pl'
p234
aS'pt'
p235
aS'ro'
p236
aS'ru'
p237
aS'sr'
p238
aS'sk'
p239
aS'es'
p240
aS'sv'
p241
aS'th'
p242
aS'tr'
p243
aS'vi'
p244
aS'xx'
p245
asS'persist_stored_files'
p246
I01
sS'version'
p247
I0
sS'accepts_from'
p248
NsS'prefs'
p249
I01
sS'name'
p250
S'Plex Music'
p251
sa(dp252
S'media_types'
p253
(lp254
S'Album'
p255
asS'primary_provider'
p256
I01
sS'fallback_agent'
p257
NsS'contributes_to'
p258
Nsg15
I01
sS'languages'
p259
g215
sS'persist_stored_files'
p260
I01
sS'version'
p261
I0
sS'accepts_from'
p262
NsS'prefs'
p263
I01
sS'name'
p264
S'Plex Music'
p265
sasS'com.plexapp.agents.opensubtitles'
p266
(lp267
(dp268
S'media_types'
p269
(lp270
S'Movie'
p271
asS'primary_provider'
p272
I00
sS'fallback_agent'
p273
NsS'contributes_to'
p274
(lp275
S'com.plexapp.agents.imdb'
p276
asg15
I00
sS'languages'
p277
(lp278
S'xn'
p279
asS'persist_stored_files'
p280
I01
sS'version'
p281
I0
sS'accepts_from'
p282
NsS'prefs'
p283
I01
sS'name'
p284
S'OpenSubtitles.org'
p285
sa(dp286
S'media_types'
p287
(lp288
S'TV_Show'
p289
asS'primary_provider'
p290
I00
sS'fallback_agent'
p291
NsS'contributes_to'
p292
(lp293
S'com.plexapp.agents.thetvdb'
p294
asg15
I00
sS'languages'
p295
(lp296
S'xn'
p297
asS'persist_stored_files'
p298
I01
sS'version'
p299
I0
sS'accepts_from'
p300
NsS'prefs'
p301
I01
sS'name'
p302
S'OpenSubtitles.org'
p303
sasS'com.plexapp.agents.imdb'
p304
(lp305
(dp306
S'media_types'
p307
(lp308
S'Movie'
p309
asS'primary_provider'
p310
I01
sS'fallback_agent'
p311
NsS'contributes_to'
p312
(lp313
S'com.plexapp.agents.themoviedb'
p314
asS'has_attribution'
p315
I01
sS'languages'
p316
(lp317
S'en'
p318
aS'sv'
p319
aS'fr'
p320
aS'es'
p321
aS'nl'
p322
aS'de'
p323
aS'it'
p324
aS'da'
p325
aS'ar'
p326
aS'ca'
p327
aS'zh'
p328
aS'cs'
p329
aS'et'
p330
aS'fi'
p331
aS'el'
p332
aS'he'
p333
aS'hi'
p334
aS'hu'
p335
aS'id'
p336
aS'ja'
p337
aS'ko'
p338
aS'lv'
p339
aS'no'
p340
aS'fa'
p341
aS'pl'
p342
aS'pt'
p343
aS'ro'
p344
aS'ru'
p345
aS'sk'
p346
aS'th'
p347
aS'tr'
p348
aS'uk'
p349
aS'vi'
p350
asS'persist_stored_files'
p351
I01
sS'version'
p352
I0
sS'accepts_from'
p353
(lp354
S'com.plexapp.agents.localmedia'
p355
asS'prefs'
p356
I01
sS'name'
p357
S'Plex Movie'
p358
sasS'com.plexapp.agents.lyricfind'
p359
(lp360
(dp361
S'media_types'
p362
(lp363
S'Album'
p364
asS'primary_provider'
p365
I00
sS'fallback_agent'
p366
NsS'contributes_to'
p367
(lp368
S'com.plexapp.agents.lastfm'
p369
aS'tv.plex.agents.music'
p370
aS'org.musicbrainz.agents.music'
p371
asg15
I01
sS'languages'
p372
(lp373
S'xn'
p374
asS'persist_stored_files'
p375
I01
sS'version'
p376
I0
sS'accepts_from'
p377
NsS'prefs'
p378
I00
sS'name'
p379
S'LyricFind'
p380
sasS'com.plexapp.agents.thetvdb'
p381
(lp382
(dp383
S'media_types'
p384
(lp385
S'TV_Show'
p386
asS'primary_provider'
p387
I01
sS'fallback_agent'
p388
NsS'contributes_to'
p389
Nsg15
I01
sS'languages'
p390
(lp391
S'en'
p392
aS'fr'
p393
aS'zh'
p394
aS'sv'
p395
aS'no'
p396
aS'da'
p397
aS'fi'
p398
aS'nl'
p399
aS'de'
p400
aS'it'
p401
aS'es'
p402
aS'pl'
p403
aS'hu'
p404
aS'el'
p405
aS'tr'
p406
aS'ru'
p407
aS'he'
p408
aS'ja'
p409
aS'pt'
p410
aS'cs'
p411
aS'ko'
p412
aS'sl'
p413
aS'hr'
p414
asS'persist_stored_files'
p415
I01
sS'version'
p416
I0
sS'accepts_from'
p417
NsS'prefs'
p418
I01
sS'name'
p419
S'TheTVDB'
p420
sasS'tv.plex.agents.movie'
p421
(lp422
(dp423
S'media_types'
p424
(lp425
S'Movie'
p426
asS'primary_provider'
p427
I01
sS'fallback_agent'
p428
NsS'contributes_to'
p429
NsS'has_attribution'
p430
I01
sS'languages'
p431
(lp432
sS'persist_stored_files'
p433
I01
sS'version'
p434
I0
sS'accepts_from'
p435
NsS'prefs'
p436
I01
sS'name'
p437
S'Plex Movie'
p438
sasS'tv.plex.agents.series'
p439
(lp440
(dp441
S'media_types'
p442
(lp443
S'TV_Show'
p444
asS'primary_provider'
p445
I01
sS'fallback_agent'
p446
NsS'contributes_to'
p447
Nsg15
I01
sS'languages'
p448
(lp449
sS'persist_stored_files'
p450
I01
sS'version'
p451
I0
sS'accepts_from'
p452
NsS'prefs'
p453
I01
sS'name'
p454
S'Plex TV Series'
p455
sasS'com.plexapp.agents.lastfm'
p456
(lp457
(dp458
S'media_types'
p459
(lp460
S'Artist'
p461
asS'primary_provider'
p462
I01
sS'fallback_agent'
p463
NsS'contributes_to'
p464
Nsg15
I01
sS'languages'
p465
(lp466
S'en'
p467
aS'sv'
p468
aS'fr'
p469
aS'es'
p470
aS'de'
p471
aS'pl'
p472
aS'it'
p473
aS'pt'
p474
aS'ja'
p475
aS'tr'
p476
aS'ru'
p477
aS'zh'
p478
asS'persist_stored_files'
p479
I01
sS'version'
p480
I0
sS'accepts_from'
p481
NsS'prefs'
p482
I01
sS'name'
p483
S'Last.fm'
p484
sa(dp485
S'media_types'
p486
(lp487
S'Album'
p488
asS'primary_provider'
p489
I01
sS'fallback_agent'
p490
NsS'contributes_to'
p491
Nsg15
I01
sS'languages'
p492
(lp493
S'en'
p494
aS'sv'
p495
aS'fr'
p496
aS'es'
p497
aS'de'
p498
aS'pl'
p499
aS'it'
p500
aS'pt'
p501
aS'ja'
p502
aS'tr'
p503
aS'ru'
p504
aS'zh'
p505
asS'persist_stored_files'
p506
I01
sS'version'
p507
I0
sS'accepts_from'
p508
NsS'prefs'
p509
I01
sS'name'
p510
S'Last.fm'
p511
sasS'org.musicbrainz.agents.music'
p512
(lp513
(dp514
S'media_types'
p515
(lp516
S'Artist'
p517
asS'primary_provider'
p518
I01
sS'fallback_agent'
p519
NsS'contributes_to'
p520
Nsg15
I01
sS'languages'
p521
(lp522
S'en'
p523
aS'ar'
p524
aS'bg'
p525
aS'zh'
p526
aS'hr'
p527
aS'cs'
p528
aS'da'
p529
aS'nl'
p530
aS'fi'
p531
aS'fr'
p532
aS'de'
p533
aS'el'
p534
aS'hu'
p535
aS'id'
p536
aS'it'
p537
aS'ja'
p538
aS'ko'
p539
aS'nn'
p540
aS'pl'
p541
aS'pt'
p542
aS'ro'
p543
aS'ru'
p544
aS'sr'
p545
aS'sk'
p546
aS'es'
p547
aS'sv'
p548
aS'th'
p549
aS'tr'
p550
aS'vi'
p551
aS'xx'
p552
asS'persist_stored_files'
p553
I01
sS'version'
p554
I0
sS'accepts_from'
p555
NsS'prefs'
p556
I01
sS'name'
p557
S'Musicbrainz'
p558
sa(dp559
S'media_types'
p560
(lp561
S'Album'
p562
asS'primary_provider'
p563
I01
sS'fallback_agent'
p564
NsS'contributes_to'
p565
Nsg15
I01
sS'languages'
p566
g522
sS'persist_stored_files'
p567
I01
sS'version'
p568
I0
sS'accepts_from'
p569
NsS'prefs'
p570
I01
sS'name'
p571
S'Musicbrainz'
p572
sasS'com.plexapp.agents.themoviedb'
p573
(lp574
(dp575
S'media_types'
p576
(lp577
S'Movie'
p578
asS'primary_provider'
p579
I01
sS'fallback_agent'
p580
NsS'contributes_to'
p581
Nsg15
I01
sS'languages'
p582
(lp583
S'en'
p584
aS'cs'
p585
aS'da'
p586
aS'de'
p587
aS'el'
p588
aS'es'
p589
aS'fi'
p590
aS'fr'
p591
aS'he'
p592
aS'hr'
p593
aS'hu'
p594
aS'it'
p595
aS'lv'
p596
aS'lt'
p597
aS'nl'
p598
aS'no'
p599
aS'pl'
p600
aS'pt'
p601
aS'ru'
p602
aS'sk'
p603
aS'sv'
p604
aS'th'
p605
aS'tr'
p606
aS'vi'
p607
aS'zh'
p608
aS'ko'
p609
asS'persist_stored_files'
p610
I01
sS'version'
p611
I0
sS'accepts_from'
p612
(lp613
S'com.plexapp.agents.localmedia'
p614
asS'prefs'
p615
I01
sS'name'
p616
S'The Movie Database'
p617
sa(dp618
S'media_types'
p619
(lp620
S'TV_Show'
p621
asS'primary_provider'
p622
I01
sS'fallback_agent'
p623
NsS'contributes_to'
p624
(lp625
S'com.plexapp.agents.thetvdb'
p626
asg15
I01
sS'languages'
p627
g583
sS'persist_stored_files'
p628
I01
sS'version'
p629
I0
sS'accepts_from'
p630
(lp631
S'com.plexapp.agents.localmedia'
p632
aS'com.plexapp.agents.thetvdb'
p633
asS'prefs'
p634
I01
sS'name'
p635
S'The Movie Database'
p636
sasS'com.plexapp.agents.htbackdrops'
p637
(lp638
(dp639
S'media_types'
p640
(lp641
S'Artist'
p642
asS'primary_provider'
p643
I00
sS'fallback_agent'
p644
NsS'contributes_to'
p645
(lp646
S'com.plexapp.agents.lastfm'
p647
asg15
I01
sS'languages'
p648
(lp649
S'ab'
p650
aS'aa'
p651
aS'af'
p652
aS'ak'
p653
aS'sq'
p654
aS'am'
p655
aS'ar'
p656
aS'an'
p657
aS'hy'
p658
aS'as'
p659
aS'av'
p660
aS'ae'
p661
aS'ay'
p662
aS'az'
p663
aS'bm'
p664
aS'ba'
p665
aS'eu'
p666
aS'be'
p667
aS'bn'
p668
aS'bh'
p669
aS'bi'
p670
aS'bs'
p671
aS'pb'
p672
aS'br'
p673
aS'bg'
p674
aS'my'
p675
aS'ca'
p676
aS'ch'
p677
aS'ce'
p678
aS'ny'
p679
aS'zh'
p680
aS'cu'
p681
aS'cv'
p682
aS'kw'
p683
aS'co'
p684
aS'cr'
p685
aS'hr'
p686
aS'cs'
p687
aS'da'
p688
aS'dv'
p689
aS'nl'
p690
aS'dz'
p691
aS'en'
p692
aS'eo'
p693
aS'et'
p694
aS'ee'
p695
aS'fo'
p696
aS'fj'
p697
aS'fi'
p698
aS'fr'
p699
aS'fy'
p700
aS'ff'
p701
aS'gd'
p702
aS'gl'
p703
aS'lg'
p704
aS'ka'
p705
aS'de'
p706
aS'el'
p707
aS'gn'
p708
aS'gu'
p709
aS'ht'
p710
aS'ha'
p711
aS'he'
p712
aS'hz'
p713
aS'hi'
p714
aS'ho'
p715
aS'hu'
p716
aS'is'
p717
aS'io'
p718
aS'ig'
p719
aS'id'
p720
aS'ia'
p721
aS'ie'
p722
aS'iu'
p723
aS'ik'
p724
aS'ga'
p725
aS'it'
p726
aS'ja'
p727
aS'jv'
p728
aS'kl'
p729
aS'kn'
p730
aS'kr'
p731
aS'ks'
p732
aS'kk'
p733
aS'km'
p734
aS'ki'
p735
aS'rw'
p736
aS'ky'
p737
aS'kv'
p738
aS'kg'
p739
aS'ko'
p740
aS'kj'
p741
aS'ku'
p742
aS'lo'
p743
aS'la'
p744
aS'lv'
p745
aS'li'
p746
aS'ln'
p747
aS'lt'
p748
aS'lu'
p749
aS'lb'
p750
aS'mk'
p751
aS'mg'
p752
aS'ms'
p753
aS'ml'
p754
aS'mt'
p755
aS'gv'
p756
aS'mi'
p757
aS'mr'
p758
aS'mh'
p759
aS'mo'
p760
aS'mn'
p761
aS'na'
p762
aS'nv'
p763
aS'ng'
p764
aS'ne'
p765
aS'xn'
p766
aS'nd'
p767
aS'no'
p768
aS'nb'
p769
aS'nn'
p770
aS'oc'
p771
aS'oj'
p772
aS'or'
p773
aS'om'
p774
aS'os'
p775
aS'pi'
p776
aS'pa'
p777
aS'fa'
p778
aS'pl'
p779
aS'pt'
p780
aS'ps'
p781
aS'qu'
p782
aS'rm'
p783
aS'ro'
p784
aS'rn'
p785
aS'ru'
p786
aS'se'
p787
aS'sm'
p788
aS'sg'
p789
aS'sa'
p790
aS'sc'
p791
aS'sr'
p792
aS'sn'
p793
aS'ii'
p794
aS'sd'
p795
aS'si'
p796
aS'sk'
p797
aS'sl'
p798
aS'so'
p799
aS'st'
p800
aS'nr'
p801
aS'es'
p802
aS'su'
p803
aS'sw'
p804
aS'ss'
p805
aS'sv'
p806
aS'tl'
p807
aS'ty'
p808
aS'tg'
p809
aS'ta'
p810
aS'tt'
p811
aS'te'
p812
aS'th'
p813
aS'bo'
p814
aS'ti'
p815
aS'to'
p816
aS'ts'
p817
aS'tn'
p818
aS'tr'
p819
aS'tk'
p820
aS'tw'
p821
aS'ug'
p822
aS'uk'
p823
aS'ur'
p824
aS'uz'
p825
aS've'
p826
aS'vi'
p827
aS'vo'
p828
aS'wa'
p829
aS'cy'
p830
aS'wo'
p831
aS'xh'
p832
aS'yi'
p833
aS'yo'
p834
aS'za'
p835
aS'zu'
p836
asS'persist_stored_files'
p837
I01
sS'version'
p838
I0
sS'accepts_from'
p839
NsS'prefs'
p840
I00
sS'name'
p841
S'Home Theater Backdrops'
p842
sasS'com.plexapp.agents.movieposterdb'
p843
(lp844
(dp845
S'media_types'
p846
(lp847
S'Movie'
p848
asS'primary_provider'
p849
I00
sS'fallback_agent'
p850
NsS'contributes_to'
p851
(lp852
S'com.plexapp.agents.imdb'
p853
asg15
I01
sS'languages'
p854
(lp855
S'xn'
p856
asS'persist_stored_files'
p857
I01
sS'version'
p858
I0
sS'accepts_from'
p859
NsS'prefs'
p860
I00
sS'name'
p861
S'CineMaterial'
p862
sasS'com.plexapp.agents.localmedia'
p863
(lp864
(dp865
S'media_types'
p866
(lp867
S'Movie'
p868
asS'primary_provider'
p869
I00
sS'fallback_agent'
p870
NsS'contributes_to'
p871
(lp872
S'com.plexapp.agents.imdb'
p873
aS'com.plexapp.agents.none'
p874
asg15
I00
sS'languages'
p875
(lp876
S'xn'
p877
asS'persist_stored_files'
p878
I00
sS'version'
p879
I0
sS'accepts_from'
p880
NsS'prefs'
p881
I01
sS'name'
p882
S'Local Media Assets (Movies)'
p883
sa(dp884
S'media_types'
p885
(lp886
S'TV_Show'
p887
asS'primary_provider'
p888
I00
sS'fallback_agent'
p889
NsS'contributes_to'
p890
(lp891
S'com.plexapp.agents.thetvdb'
p892
aS'com.plexapp.agents.none'
p893
asg15
I00
sS'languages'
p894
(lp895
S'xn'
p896
asS'persist_stored_files'
p897
I00
sS'version'
p898
I0
sS'accepts_from'
p899
NsS'prefs'
p900
I01
sS'name'
p901
S'Local Media Assets (TV)'
p902
sa(dp903
S'media_types'
p904
(lp905
S'Artist'
p906
asS'primary_provider'
p907
I00
sS'fallback_agent'
p908
NsS'contributes_to'
p909
(lp910
S'com.plexapp.agents.discogs'
p911
aS'com.plexapp.agents.lastfm'
p912
aS'com.plexapp.agents.plexmusic'
p913
aS'com.plexapp.agents.none'
p914
aS'tv.plex.agents.music'
p915
aS'org.musicbrainz.agents.music'
p916
asg15
I00
sS'languages'
p917
(lp918
S'xn'
p919
asS'persist_stored_files'
p920
I00
sS'version'
p921
I0
sS'accepts_from'
p922
NsS'prefs'
p923
I01
sS'name'
p924
S'Local Media Assets (Artists)'
p925
sa(dp926
S'media_types'
p927
(lp928
S'Artist'
p929
asS'primary_provider'
p930
I00
sS'fallback_agent'
p931
NsS'contributes_to'
p932
(lp933
S'com.plexapp.agents.plexmusic'
p934
asg15
I00
sS'languages'
p935
g918
sS'persist_stored_files'
p936
I00
sS'version'
p937
I2
sS'accepts_from'
p938
NsS'prefs'
p939
I01
sS'name'
p940
S'Local Media Assets (Artists)'
p941
sa(dp942
S'media_types'
p943
(lp944
S'Album'
p945
asS'primary_provider'
p946
I00
sS'fallback_agent'
p947
NsS'contributes_to'
p948
(lp949
S'com.plexapp.agents.discogs'
p950
aS'com.plexapp.agents.lastfm'
p951
aS'com.plexapp.agents.plexmusic'
p952
aS'com.plexapp.agents.none'
p953
aS'tv.plex.agents.music'
p954
aS'org.musicbrainz.agents.music'
p955
asg15
I00
sS'languages'
p956
(lp957
S'xn'
p958
asS'persist_stored_files'
p959
I00
sS'version'
p960
I0
sS'accepts_from'
p961
NsS'prefs'
p962
I01
sS'name'
p963
S'Local Media Assets (Albums)'
p964
sasS'com.plexapp.agents.plexthememusic'
p965
(lp966
(dp967
S'media_types'
p968
(lp969
S'TV_Show'
p970
asS'primary_provider'
p971
I00
sS'fallback_agent'
p972
NsS'contributes_to'
p973
(lp974
S'com.plexapp.agents.thetvdb'
p975
aS'com.plexapp.agents.thetvdbdvdorder'
p976
aS'com.plexapp.agents.themoviedb'
p977
asg15
I00
sS'languages'
p978
(lp979
S'xn'
p980
asS'persist_stored_files'
p981
I01
sS'version'
p982
I0
sS'accepts_from'
p983
NsS'prefs'
p984
I00
sS'name'
p985
S'Plex Theme Music'
p986
sass.