(dp0
S'_AgentService:AgentInfo'
p1
(dp2
S'com.plexapp.agents.fanarttv'
p3
(lp4
(dp5
S'media_types'
p6
(lp7
S'Movie'
p8
asS'primary_provider'
p9
I00
sS'fallback_agent'
p10
NsS'contributes_to'
p11
(lp12
S'com.plexapp.agents.imdb'
p13
aS'com.plexapp.agents.themoviedb'
p14
asS'has_attribution'
p15
I01
sS'languages'
p16
(lp17
S'xn'
p18
asS'persist_stored_files'
p19
I01
sS'version'
p20
I0
sS'accepts_from'
p21
NsS'prefs'
p22
I01
sS'name'
p23
S'Fanart.tv'
p24
sa(dp25
S'media_types'
p26
(lp27
S'TV_Show'
p28
asS'primary_provider'
p29
I00
sS'fallback_agent'
p30
NsS'contributes_to'
p31
(lp32
S'com.plexapp.agents.thetvdb'
p33
aS'com.plexapp.agents.themoviedb'
p34
asg15
I01
sS'languages'
p35
(lp36
S'xn'
p37
asS'persist_stored_files'
p38
I01
sS'version'
p39
I0
sS'accepts_from'
p40
NsS'prefs'
p41
I01
sS'name'
p42
S'Fanart.tv'
p43
sa(dp44
S'media_types'
p45
(lp46
S'Artist'
p47
asS'primary_provider'
p48
I00
sS'fallback_agent'
p49
NsS'contributes_to'
p50
(lp51
S'com.plexapp.agents.lastfm'
p52
asg15
I01
sS'languages'
p53
(lp54
S'xn'
p55
asS'persist_stored_files'
p56
I01
sS'version'
p57
I0
sS'accepts_from'
p58
NsS'prefs'
p59
I01
sS'name'
p60
S'Fanart.tv'
p61
sa(dp62
S'media_types'
p63
(lp64
S'Album'
p65
asS'primary_provider'
p66
I00
sS'fallback_agent'
p67
NsS'contributes_to'
p68
(lp69
S'com.plexapp.agents.lastfm'
p70
asg15
I01
sS'languages'
p71
(lp72
S'xn'
p73
asS'persist_stored_files'
p74
I01
sS'version'
p75
I0
sS'accepts_from'
p76
NsS'prefs'
p77
I01
sS'name'
p78
S'Fanart.tv'
p79
sasS'com.plexapp.agents.none'
p80
(lp81
(dp82
S'media_types'
p83
(lp84
S'Movie'
p85
asS'primary_provider'
p86
I01
sS'fallback_agent'
p87
NsS'contributes_to'
p88
Nsg15
I00
sS'languages'
p89
(lp90
S'xn'
p91
asS'persist_stored_files'
p92
I01
sS'version'
p93
I0
sS'accepts_from'
p94
NsS'prefs'
p95
I00
sS'name'
p96
S'Personal Media'
p97
sa(dp98
S'media_types'
p99
(lp100
S'TV_Show'
p101
asS'primary_provider'
p102
I01
sS'fallback_agent'
p103
NsS'contributes_to'
p104
Nsg15
I00
sS'languages'
p105
(lp106
S'xn'
p107
asS'persist_stored_files'
p108
I01
sS'version'
p109
I0
sS'accepts_from'
p110
NsS'prefs'
p111
I00
sS'name'
p112
S'Personal Media Shows'
p113
sa(dp114
S'media_types'
p115
(lp116
S'Artist'
p117
asS'primary_provider'
p118
I01
sS'fallback_agent'
p119
NsS'contributes_to'
p120
Nsg15
I00
sS'languages'
p121
(lp122
S'xn'
p123
asS'persist_stored_files'
p124
I01
sS'version'
p125
I0
sS'accepts_from'
p126
NsS'prefs'
p127
I00
sS'name'
p128
S'Personal Media Artists'
p129
sa(dp130
S'media_types'
p131
(lp132
S'Album'
p133
asS'primary_provider'
p134
I01
sS'fallback_agent'
p135
NsS'contributes_to'
p136
Nsg15
I00
sS'languages'
p137
(lp138
S'xn'
p139
asS'persist_stored_files'
p140
I01
sS'version'
p141
I0
sS'accepts_from'
p142
NsS'prefs'
p143
I00
sS'name'
p144
S'Personal Media Albums'
p145
sa(dp146
S'media_types'
p147
(lp148
S'Photo'
p149
asS'primary_provider'
p150
I01
sS'fallback_agent'
p151
NsS'contributes_to'
p152
Nsg15
I00
sS'languages'
p153
(lp154
S'en'
p155
aS'ar'
p156
aS'bg'
p157
aS'ca'
p158
aS'cs'
p159
aS'cy'
p160
aS'da'
p161
aS'de'
p162
aS'el'
p163
aS'es'
p164
aS'et'
p165
aS'fa'
p166
aS'fi'
p167
aS'fr'
p168
aS'he'
p169
aS'hi'
p170
aS'hr'
p171
aS'ht'
p172
aS'hu'
p173
aS'id'
p174
aS'it'
p175
aS'ja'
p176
aS'ko'
p177
aS'lt'
p178
aS'lv'
p179
aS'ms'
p180
aS'mt'
p181
aS'nl'
p182
aS'no'
p183
aS'pl'
p184
aS'pt'
p185
aS'ro'
p186
aS'ru'
p187
aS'sk'
p188
aS'sv'
p189
aS'sl'
p190
aS'sr'
p191
aS'th'
p192
aS'tr'
p193
aS'uk'
p194
aS'ur'
p195
aS'vi'
p196
aS'zh'
p197
aS'xn'
p198
asS'persist_stored_files'
p199
I01
sS'version'
p200
I0
sS'accepts_from'
p201
NsS'prefs'
p202
I00
sS'name'
p203
S'Photos'
p204
sasS'tv.plex.agents.music'
p205
(lp206
(dp207
S'media_types'
p208
(lp209
S'Artist'
p210
asS'primary_provider'
p211
I01
sS'fallback_agent'
p212
NsS'contributes_to'
p213
Nsg15
I01
sS'languages'
p214
(lp215
S'en'
p216
aS'ar'
p217
aS'bg'
p218
aS'zh'
p219
aS'hr'
p220
aS'cs'
p221
aS'da'
p222
aS'nl'
p223
aS'fi'
p224
aS'fr'
p225
aS'de'
p226
aS'el'
p227
aS'hu'
p228
aS'id'
p229
aS'it'
p230
aS'ja'
p231
aS'ko'
p232
aS'nn'
p233
aS'pl'
p234
aS'pt'
p235
aS'ro'
p236
aS'ru'
p237
aS'sr'
p238
aS'sk'
p239
aS'es'
p240
aS'sv'
p241
aS'th'
p242
aS'tr'
p243
aS'vi'
p244
aS'xx'
p245
asS'persist_stored_files'
p246
I01
sS'version'
p247
I0
sS'accepts_from'
p248
NsS'prefs'
p249
I01
sS'name'
p250
S'Plex Music'
p251
sa(dp252
S'media_types'
p253
(lp254
S'Album'
p255
asS'primary_provider'
p256
I01
sS'fallback_agent'
p257
NsS'contributes_to'
p258
Nsg15
I01
sS'languages'
p259
g215
sS'persist_stored_files'
p260
I01
sS'version'
p261
I0
sS'accepts_from'
p262
NsS'prefs'
p263
I01
sS'name'
p264
S'Plex Music'
p265
sasS'com.plexapp.agents.opensubtitles'
p266
(lp267
(dp268
S'media_types'
p269
(lp270
S'Movie'
p271
asS'primary_provider'
p272
I00
sS'fallback_agent'
p273
NsS'contributes_to'
p274
(lp275
S'com.plexapp.agents.imdb'
p276
asg15
I00
sS'languages'
p277
(lp278
S'xn'
p279
asS'persist_stored_files'
p280
I01
sS'version'
p281
I0
sS'accepts_from'
p282
NsS'prefs'
p283
I01
sS'name'
p284
S'OpenSubtitles.org'
p285
sa(dp286
S'media_types'
p287
(lp288
S'TV_Show'
p289
asS'primary_provider'
p290
I00
sS'fallback_agent'
p291
NsS'contributes_to'
p292
(lp293
S'com.plexapp.agents.thetvdb'
p294
asg15
I00
sS'languages'
p295
(lp296
S'xn'
p297
asS'persist_stored_files'
p298
I01
sS'version'
p299
I0
sS'accepts_from'
p300
NsS'prefs'
p301
I01
sS'name'
p302
S'OpenSubtitles.org'
p303
sasS'com.plexapp.agents.imdb'
p304
(lp305
(dp306
S'media_types'
p307
(lp308
S'Movie'
p309
asS'primary_provider'
p310
I01
sS'fallback_agent'
p311
NsS'contributes_to'
p312
(lp313
S'com.plexapp.agents.themoviedb'
p314
asg15
I01
sS'languages'
p315
(lp316
S'en'
p317
aS'sv'
p318
aS'fr'
p319
aS'es'
p320
aS'nl'
p321
aS'de'
p322
aS'it'
p323
aS'da'
p324
aS'ar'
p325
aS'ca'
p326
aS'zh'
p327
aS'cs'
p328
aS'et'
p329
aS'fi'
p330
aS'el'
p331
aS'he'
p332
aS'hi'
p333
aS'hu'
p334
aS'id'
p335
aS'ja'
p336
aS'ko'
p337
aS'lv'
p338
aS'no'
p339
aS'fa'
p340
aS'pl'
p341
aS'pt'
p342
aS'ro'
p343
aS'ru'
p344
aS'sk'
p345
aS'th'
p346
aS'tr'
p347
aS'uk'
p348
aS'vi'
p349
asS'persist_stored_files'
p350
I01
sS'version'
p351
I0
sS'accepts_from'
p352
(lp353
S'com.plexapp.agents.localmedia'
p354
asS'prefs'
p355
I01
sS'name'
p356
S'Plex Movie'
p357
sasS'com.plexapp.agents.lyricfind'
p358
(lp359
(dp360
S'media_types'
p361
(lp362
S'Album'
p363
asS'primary_provider'
p364
I00
sS'fallback_agent'
p365
NsS'contributes_to'
p366
(lp367
S'com.plexapp.agents.lastfm'
p368
aS'tv.plex.agents.music'
p369
aS'org.musicbrainz.agents.music'
p370
asg15
I01
sS'languages'
p371
(lp372
S'xn'
p373
asS'persist_stored_files'
p374
I01
sS'version'
p375
I0
sS'accepts_from'
p376
NsS'prefs'
p377
I00
sS'name'
p378
S'LyricFind'
p379
sasS'com.plexapp.agents.thetvdb'
p380
(lp381
(dp382
S'media_types'
p383
(lp384
S'TV_Show'
p385
asS'primary_provider'
p386
I01
sS'fallback_agent'
p387
NsS'contributes_to'
p388
Nsg15
I01
sS'languages'
p389
(lp390
S'en'
p391
aS'fr'
p392
aS'zh'
p393
aS'sv'
p394
aS'no'
p395
aS'da'
p396
aS'fi'
p397
aS'nl'
p398
aS'de'
p399
aS'it'
p400
aS'es'
p401
aS'pl'
p402
aS'hu'
p403
aS'el'
p404
aS'tr'
p405
aS'ru'
p406
aS'he'
p407
aS'ja'
p408
aS'pt'
p409
aS'cs'
p410
aS'ko'
p411
aS'sl'
p412
aS'hr'
p413
asS'persist_stored_files'
p414
I01
sS'version'
p415
I0
sS'accepts_from'
p416
NsS'prefs'
p417
I01
sS'name'
p418
S'TheTVDB'
p419
sasS'tv.plex.agents.movie'
p420
(lp421
(dp422
S'media_types'
p423
(lp424
S'Movie'
p425
asS'primary_provider'
p426
I01
sS'fallback_agent'
p427
NsS'contributes_to'
p428
Nsg15
I01
sS'languages'
p429
(lp430
sS'persist_stored_files'
p431
I01
sS'version'
p432
I0
sS'accepts_from'
p433
NsS'prefs'
p434
I01
sS'name'
p435
S'Plex Movie'
p436
sasS'tv.plex.agents.series'
p437
(lp438
(dp439
S'media_types'
p440
(lp441
S'TV_Show'
p442
asS'primary_provider'
p443
I01
sS'fallback_agent'
p444
NsS'contributes_to'
p445
Nsg15
I01
sS'languages'
p446
(lp447
sS'persist_stored_files'
p448
I01
sS'version'
p449
I0
sS'accepts_from'
p450
NsS'prefs'
p451
I01
sS'name'
p452
S'Plex TV Series'
p453
sasS'com.plexapp.agents.lastfm'
p454
(lp455
(dp456
S'media_types'
p457
(lp458
S'Artist'
p459
asS'primary_provider'
p460
I01
sS'fallback_agent'
p461
NsS'contributes_to'
p462
Nsg15
I01
sS'languages'
p463
(lp464
S'en'
p465
aS'sv'
p466
aS'fr'
p467
aS'es'
p468
aS'de'
p469
aS'pl'
p470
aS'it'
p471
aS'pt'
p472
aS'ja'
p473
aS'tr'
p474
aS'ru'
p475
aS'zh'
p476
asS'persist_stored_files'
p477
I01
sS'version'
p478
I0
sS'accepts_from'
p479
NsS'prefs'
p480
I01
sS'name'
p481
S'Last.fm'
p482
sa(dp483
S'media_types'
p484
(lp485
S'Album'
p486
asS'primary_provider'
p487
I01
sS'fallback_agent'
p488
NsS'contributes_to'
p489
Nsg15
I01
sS'languages'
p490
(lp491
S'en'
p492
aS'sv'
p493
aS'fr'
p494
aS'es'
p495
aS'de'
p496
aS'pl'
p497
aS'it'
p498
aS'pt'
p499
aS'ja'
p500
aS'tr'
p501
aS'ru'
p502
aS'zh'
p503
asS'persist_stored_files'
p504
I01
sS'version'
p505
I0
sS'accepts_from'
p506
NsS'prefs'
p507
I01
sS'name'
p508
S'Last.fm'
p509
sasS'org.musicbrainz.agents.music'
p510
(lp511
(dp512
S'media_types'
p513
(lp514
S'Artist'
p515
asS'primary_provider'
p516
I01
sS'fallback_agent'
p517
NsS'contributes_to'
p518
Nsg15
I01
sS'languages'
p519
(lp520
S'en'
p521
aS'ar'
p522
aS'bg'
p523
aS'zh'
p524
aS'hr'
p525
aS'cs'
p526
aS'da'
p527
aS'nl'
p528
aS'fi'
p529
aS'fr'
p530
aS'de'
p531
aS'el'
p532
aS'hu'
p533
aS'id'
p534
aS'it'
p535
aS'ja'
p536
aS'ko'
p537
aS'nn'
p538
aS'pl'
p539
aS'pt'
p540
aS'ro'
p541
aS'ru'
p542
aS'sr'
p543
aS'sk'
p544
aS'es'
p545
aS'sv'
p546
aS'th'
p547
aS'tr'
p548
aS'vi'
p549
aS'xx'
p550
asS'persist_stored_files'
p551
I01
sS'version'
p552
I0
sS'accepts_from'
p553
NsS'prefs'
p554
I01
sS'name'
p555
S'Musicbrainz'
p556
sa(dp557
S'media_types'
p558
(lp559
S'Album'
p560
asS'primary_provider'
p561
I01
sS'fallback_agent'
p562
NsS'contributes_to'
p563
Nsg15
I01
sS'languages'
p564
g520
sS'persist_stored_files'
p565
I01
sS'version'
p566
I0
sS'accepts_from'
p567
NsS'prefs'
p568
I01
sS'name'
p569
S'Musicbrainz'
p570
sasS'com.plexapp.agents.themoviedb'
p571
(lp572
(dp573
S'media_types'
p574
(lp575
S'Movie'
p576
asS'primary_provider'
p577
I01
sS'fallback_agent'
p578
NsS'contributes_to'
p579
Nsg15
I01
sS'languages'
p580
(lp581
S'en'
p582
aS'cs'
p583
aS'da'
p584
aS'de'
p585
aS'el'
p586
aS'es'
p587
aS'fi'
p588
aS'fr'
p589
aS'he'
p590
aS'hr'
p591
aS'hu'
p592
aS'it'
p593
aS'lv'
p594
aS'lt'
p595
aS'nl'
p596
aS'no'
p597
aS'pl'
p598
aS'pt'
p599
aS'ru'
p600
aS'sk'
p601
aS'sv'
p602
aS'th'
p603
aS'tr'
p604
aS'vi'
p605
aS'zh'
p606
aS'ko'
p607
asS'persist_stored_files'
p608
I01
sS'version'
p609
I0
sS'accepts_from'
p610
(lp611
S'com.plexapp.agents.localmedia'
p612
asS'prefs'
p613
I01
sS'name'
p614
S'The Movie Database'
p615
sa(dp616
S'media_types'
p617
(lp618
S'TV_Show'
p619
asS'primary_provider'
p620
I01
sS'fallback_agent'
p621
NsS'contributes_to'
p622
(lp623
S'com.plexapp.agents.thetvdb'
p624
asg15
I01
sS'languages'
p625
g581
sS'persist_stored_files'
p626
I01
sS'version'
p627
I0
sS'accepts_from'
p628
(lp629
S'com.plexapp.agents.localmedia'
p630
aS'com.plexapp.agents.thetvdb'
p631
asS'prefs'
p632
I01
sS'name'
p633
S'The Movie Database'
p634
sasS'com.plexapp.agents.htbackdrops'
p635
(lp636
(dp637
S'media_types'
p638
(lp639
S'Artist'
p640
asS'primary_provider'
p641
I00
sS'fallback_agent'
p642
NsS'contributes_to'
p643
(lp644
S'com.plexapp.agents.lastfm'
p645
asg15
I01
sS'languages'
p646
(lp647
S'ab'
p648
aS'aa'
p649
aS'af'
p650
aS'ak'
p651
aS'sq'
p652
aS'am'
p653
aS'ar'
p654
aS'an'
p655
aS'hy'
p656
aS'as'
p657
aS'av'
p658
aS'ae'
p659
aS'ay'
p660
aS'az'
p661
aS'bm'
p662
aS'ba'
p663
aS'eu'
p664
aS'be'
p665
aS'bn'
p666
aS'bh'
p667
aS'bi'
p668
aS'bs'
p669
aS'pb'
p670
aS'br'
p671
aS'bg'
p672
aS'my'
p673
aS'ca'
p674
aS'ch'
p675
aS'ce'
p676
aS'ny'
p677
aS'zh'
p678
aS'cu'
p679
aS'cv'
p680
aS'kw'
p681
aS'co'
p682
aS'cr'
p683
aS'hr'
p684
aS'cs'
p685
aS'da'
p686
aS'dv'
p687
aS'nl'
p688
aS'dz'
p689
aS'en'
p690
aS'eo'
p691
aS'et'
p692
aS'ee'
p693
aS'fo'
p694
aS'fj'
p695
aS'fi'
p696
aS'fr'
p697
aS'fy'
p698
aS'ff'
p699
aS'gd'
p700
aS'gl'
p701
aS'lg'
p702
aS'ka'
p703
aS'de'
p704
aS'el'
p705
aS'gn'
p706
aS'gu'
p707
aS'ht'
p708
aS'ha'
p709
aS'he'
p710
aS'hz'
p711
aS'hi'
p712
aS'ho'
p713
aS'hu'
p714
aS'is'
p715
aS'io'
p716
aS'ig'
p717
aS'id'
p718
aS'ia'
p719
aS'ie'
p720
aS'iu'
p721
aS'ik'
p722
aS'ga'
p723
aS'it'
p724
aS'ja'
p725
aS'jv'
p726
aS'kl'
p727
aS'kn'
p728
aS'kr'
p729
aS'ks'
p730
aS'kk'
p731
aS'km'
p732
aS'ki'
p733
aS'rw'
p734
aS'ky'
p735
aS'kv'
p736
aS'kg'
p737
aS'ko'
p738
aS'kj'
p739
aS'ku'
p740
aS'lo'
p741
aS'la'
p742
aS'lv'
p743
aS'li'
p744
aS'ln'
p745
aS'lt'
p746
aS'lu'
p747
aS'lb'
p748
aS'mk'
p749
aS'mg'
p750
aS'ms'
p751
aS'ml'
p752
aS'mt'
p753
aS'gv'
p754
aS'mi'
p755
aS'mr'
p756
aS'mh'
p757
aS'mo'
p758
aS'mn'
p759
aS'na'
p760
aS'nv'
p761
aS'ng'
p762
aS'ne'
p763
aS'xn'
p764
aS'nd'
p765
aS'no'
p766
aS'nb'
p767
aS'nn'
p768
aS'oc'
p769
aS'oj'
p770
aS'or'
p771
aS'om'
p772
aS'os'
p773
aS'pi'
p774
aS'pa'
p775
aS'fa'
p776
aS'pl'
p777
aS'pt'
p778
aS'ps'
p779
aS'qu'
p780
aS'rm'
p781
aS'ro'
p782
aS'rn'
p783
aS'ru'
p784
aS'se'
p785
aS'sm'
p786
aS'sg'
p787
aS'sa'
p788
aS'sc'
p789
aS'sr'
p790
aS'sn'
p791
aS'ii'
p792
aS'sd'
p793
aS'si'
p794
aS'sk'
p795
aS'sl'
p796
aS'so'
p797
aS'st'
p798
aS'nr'
p799
aS'es'
p800
aS'su'
p801
aS'sw'
p802
aS'ss'
p803
aS'sv'
p804
aS'tl'
p805
aS'ty'
p806
aS'tg'
p807
aS'ta'
p808
aS'tt'
p809
aS'te'
p810
aS'th'
p811
aS'bo'
p812
aS'ti'
p813
aS'to'
p814
aS'ts'
p815
aS'tn'
p816
aS'tr'
p817
aS'tk'
p818
aS'tw'
p819
aS'ug'
p820
aS'uk'
p821
aS'ur'
p822
aS'uz'
p823
aS've'
p824
aS'vi'
p825
aS'vo'
p826
aS'wa'
p827
aS'cy'
p828
aS'wo'
p829
aS'xh'
p830
aS'yi'
p831
aS'yo'
p832
aS'za'
p833
aS'zu'
p834
asS'persist_stored_files'
p835
I01
sS'version'
p836
I0
sS'accepts_from'
p837
NsS'prefs'
p838
I00
sS'name'
p839
S'Home Theater Backdrops'
p840
sasS'com.plexapp.agents.movieposterdb'
p841
(lp842
(dp843
S'media_types'
p844
(lp845
S'Movie'
p846
asS'primary_provider'
p847
I00
sS'fallback_agent'
p848
NsS'contributes_to'
p849
(lp850
S'com.plexapp.agents.imdb'
p851
asg15
I01
sS'languages'
p852
(lp853
S'xn'
p854
asS'persist_stored_files'
p855
I01
sS'version'
p856
I0
sS'accepts_from'
p857
NsS'prefs'
p858
I00
sS'name'
p859
S'CineMaterial'
p860
sasS'com.plexapp.agents.localmedia'
p861
(lp862
(dp863
S'media_types'
p864
(lp865
S'Movie'
p866
asS'primary_provider'
p867
I00
sS'fallback_agent'
p868
NsS'contributes_to'
p869
(lp870
S'com.plexapp.agents.imdb'
p871
aS'com.plexapp.agents.none'
p872
asg15
I00
sS'languages'
p873
(lp874
S'xn'
p875
asS'persist_stored_files'
p876
I00
sS'version'
p877
I0
sS'accepts_from'
p878
NsS'prefs'
p879
I01
sS'name'
p880
S'Local Media Assets (Movies)'
p881
sa(dp882
S'media_types'
p883
(lp884
S'TV_Show'
p885
asS'primary_provider'
p886
I00
sS'fallback_agent'
p887
NsS'contributes_to'
p888
(lp889
S'com.plexapp.agents.thetvdb'
p890
aS'com.plexapp.agents.none'
p891
asg15
I00
sS'languages'
p892
(lp893
S'xn'
p894
asS'persist_stored_files'
p895
I00
sS'version'
p896
I0
sS'accepts_from'
p897
NsS'prefs'
p898
I01
sS'name'
p899
S'Local Media Assets (TV)'
p900
sa(dp901
S'media_types'
p902
(lp903
S'Artist'
p904
asS'primary_provider'
p905
I00
sS'fallback_agent'
p906
NsS'contributes_to'
p907
(lp908
S'com.plexapp.agents.discogs'
p909
aS'com.plexapp.agents.lastfm'
p910
aS'com.plexapp.agents.plexmusic'
p911
aS'com.plexapp.agents.none'
p912
aS'tv.plex.agents.music'
p913
aS'org.musicbrainz.agents.music'
p914
asg15
I00
sS'languages'
p915
(lp916
S'xn'
p917
asS'persist_stored_files'
p918
I00
sS'version'
p919
I0
sS'accepts_from'
p920
NsS'prefs'
p921
I01
sS'name'
p922
S'Local Media Assets (Artists)'
p923
sa(dp924
S'media_types'
p925
(lp926
S'Artist'
p927
asS'primary_provider'
p928
I00
sS'fallback_agent'
p929
NsS'contributes_to'
p930
(lp931
S'com.plexapp.agents.plexmusic'
p932
asg15
I00
sS'languages'
p933
g916
sS'persist_stored_files'
p934
I00
sS'version'
p935
I2
sS'accepts_from'
p936
NsS'prefs'
p937
I01
sS'name'
p938
S'Local Media Assets (Artists)'
p939
sa(dp940
S'media_types'
p941
(lp942
S'Album'
p943
asS'primary_provider'
p944
I00
sS'fallback_agent'
p945
NsS'contributes_to'
p946
(lp947
S'com.plexapp.agents.discogs'
p948
aS'com.plexapp.agents.lastfm'
p949
aS'com.plexapp.agents.plexmusic'
p950
aS'com.plexapp.agents.none'
p951
aS'tv.plex.agents.music'
p952
aS'org.musicbrainz.agents.music'
p953
asg15
I00
sS'languages'
p954
(lp955
S'xn'
p956
asS'persist_stored_files'
p957
I00
sS'version'
p958
I0
sS'accepts_from'
p959
NsS'prefs'
p960
I01
sS'name'
p961
S'Local Media Assets (Albums)'
p962
sasS'com.plexapp.agents.plexthememusic'
p963
(lp964
(dp965
S'media_types'
p966
(lp967
S'TV_Show'
p968
asS'primary_provider'
p969
I00
sS'fallback_agent'
p970
NsS'contributes_to'
p971
(lp972
S'com.plexapp.agents.thetvdb'
p973
aS'com.plexapp.agents.thetvdbdvdorder'
p974
aS'com.plexapp.agents.themoviedb'
p975
asg15
I00
sS'languages'
p976
(lp977
S'xn'
p978
asS'persist_stored_files'
p979
I01
sS'version'
p980
I0
sS'accepts_from'
p981
NsS'prefs'
p982
I00
sS'name'
p983
S'Plex Theme Music'
p984
sass.